; Function Attrs: uwtable
define dso_local i64 @_Unwind_GetLanguageSpecificData(ptr noundef %0) local_unnamed_addr #0 {
  %2 = alloca %struct.unw_proc_info_t, align 8
  call void @llvm.lifetime.start.p0(i64 72, ptr nonnull %2) #8
  %3 = call i32 @__unw_get_proc_info(ptr noundef %0, ptr noundef nonnull %2)
  %4 = icmp eq i32 %3, 0
  %5 = getelementptr inbounds nuw i8, ptr %2, i64 16
  %6 = load i64, ptr %5, align 8
  %.0 = select i1 %4, i64 %6, i64 0
  %7 = call zeroext i1 @logAPIs()
  br i1 %7, label %8, label %13

8:                                                ; preds = %1
  %9 = load ptr, ptr @stderr, align 8, !tbaa !4
  %10 = call i32 (ptr, ptr, ...) @fprintf(ptr noundef %9, ptr noundef nonnull @.str.5, ptr noundef %0, i64 noundef %.0) #7
  %11 = load ptr, ptr @stderr, align 8, !tbaa !4
  %12 = call i32 @fflush(ptr noundef %11)
  br label %13

13:                                               ; preds = %8, %1
  %.not = icmp eq i64 %.0, 0
  br i1 %.not, label %22, label %14

14:                                               ; preds = %13
  %15 = inttoptr i64 %.0 to ptr
  %16 = load i8, ptr %15, align 1, !tbaa !21
  %.not7 = icmp eq i8 %16, -1
  br i1 %.not7, label %22, label %17

17:                                               ; preds = %14
  %18 = load ptr, ptr @stderr, align 8, !tbaa !4
  %19 = call i32 (ptr, ptr, ...) @fprintf(ptr noundef %18, ptr noundef nonnull @.str.6, i64 noundef %.0) #7
  %20 = load ptr, ptr @stderr, align 8, !tbaa !4
  %21 = call i32 @fflush(ptr noundef %20)
  br label %22

22:                                               ; preds = %14, %17, %13
  call void @llvm.lifetime.end.p0(i64 72, ptr nonnull %2) #8
  ret i64 %.0
}